; Function Attrs: mustprogress nounwind uwtable
define internal void @_ZN7rocksdb12_GLOBAL__N_118UnrefLockMapsCacheEPv(ptr noundef %0) #1 {
  %2 = icmp eq ptr %0, null
  br i1 %2, label %4, label %3

3:                                                ; preds = %1
  tail call void @_ZNSt10_HashtableIjSt4pairIKjSt10shared_ptrIN7rocksdb7LockMapEEESaIS6_ENSt8__detail10_Select1stESt8equal_toIjESt4hashIjENS8_18_Mod_range_hashingENS8_20_Default_ranged_hashENS8_20_Prime_rehash_policyENS8_17_Hashtable_traitsILb0ELb0ELb1EEEED2Ev(ptr noundef nonnull align 8 dereferenceable(56) %0) #30
  tail call void @_ZdlPvm(ptr noundef nonnull %0, i64 noundef 56) #28
  br label %4

4:                                                ; preds = %3, %1
  ret void
}